target datalayout = "e-m:e-p270:32:32-p271:32:32-p272:64:64-i64:64-i128:128-f80:128-n8:16:32:64-S128"
target triple = "x86_64-pc-linux-gnu"

%"class.llvm::cl::Option" = type { ptr, i16, i16, i16, i16, %"class.llvm::StringRef", %"class.llvm::StringRef", %"class.llvm::StringRef", %"class.llvm::SmallVector", %"class.llvm::SmallPtrSet" }
%"class.llvm::StringRef" = type { ptr, i64 }
%"class.llvm::SmallVector" = type { %"class.llvm::SmallVectorImpl", %"struct.llvm::SmallVectorStorage" }
%"class.llvm::SmallVectorImpl" = type { %"class.llvm::SmallVectorTemplateBase" }
%"class.llvm::SmallVectorTemplateBase" = type { %"class.llvm::SmallVectorTemplateCommon" }
%"class.llvm::SmallVectorTemplateCommon" = type { %"class.llvm::SmallVectorBase" }
%"class.llvm::SmallVectorBase" = type { ptr, i32, i32 }
%"struct.llvm::SmallVectorStorage" = type { [8 x i8] }
%"class.llvm::SmallPtrSet" = type { %"class.llvm::SmallPtrSetImpl.base", [1 x ptr] }
%"class.llvm::SmallPtrSetImpl.base" = type { %"class.llvm::SmallPtrSetImplBase.base" }
%"class.llvm::SmallPtrSetImplBase.base" = type <{ ptr, ptr, i32, i32, i32 }>
%"struct.llvm::cl::GenericOptionValue" = type { ptr }
%"class.std::_Function_base" = type { %"union.std::_Any_data", ptr }
%"union.std::_Any_data" = type { %"union.std::_Nocopy_types" }
%"union.std::_Nocopy_types" = type { { i64, i64 } }
%"class.llvm::cl::opt.0" = type { %"class.llvm::cl::Option", %"class.llvm::cl::opt_storage.1", %"class.llvm::cl::parser.8", %"class.std::function.14" }
%"class.llvm::cl::opt_storage.1" = type { i32, [4 x i8], %"struct.llvm::cl::OptionValue.2" }
%"struct.llvm::cl::OptionValue.2" = type { %"struct.llvm::cl::OptionValueBase.base.6", [3 x i8] }
%"struct.llvm::cl::OptionValueBase.base.6" = type { %"class.llvm::cl::OptionValueCopy.base.5" }
%"class.llvm::cl::OptionValueCopy.base.5" = type <{ %"struct.llvm::cl::GenericOptionValue", i32, i8 }>
%"class.llvm::cl::parser.8" = type { %"class.llvm::cl::generic_parser_base", %"class.llvm::SmallVector.9" }
%"class.llvm::cl::generic_parser_base" = type { ptr, ptr }
%"class.llvm::SmallVector.9" = type { %"class.llvm::SmallVectorImpl.10", %"struct.llvm::SmallVectorStorage.13" }
%"class.llvm::SmallVectorImpl.10" = type { %"class.llvm::SmallVectorTemplateBase.11" }
%"class.llvm::SmallVectorTemplateBase.11" = type { %"class.llvm::SmallVectorTemplateCommon.12" }
%"class.llvm::SmallVectorTemplateCommon.12" = type { %"class.llvm::SmallVectorBase" }
%"struct.llvm::SmallVectorStorage.13" = type { [384 x i8] }
%"class.std::function.14" = type { %"class.std::_Function_base", ptr }
%"class.llvm::SmallVector.93" = type { %"class.llvm::SmallVectorImpl.94", %"struct.llvm::SmallVectorStorage.97" }
%"class.llvm::SmallVectorImpl.94" = type { %"class.llvm::SmallVectorTemplateBase.95" }
%"class.llvm::SmallVectorTemplateBase.95" = type { %"class.llvm::SmallVectorTemplateCommon.96" }
%"class.llvm::SmallVectorTemplateCommon.96" = type { %"class.llvm::SmallVectorBase" }
%"struct.llvm::SmallVectorStorage.97" = type { [64 x i8] }
%"class.llvm::MachineInstrBundleIterator" = type { %"class.llvm::ilist_iterator" }
%"class.llvm::ilist_iterator" = type { ptr }
%"class.std::vector.243" = type { %"struct.std::_Vector_base.244" }
%"struct.std::_Vector_base.244" = type { %"struct.std::_Vector_base<unsigned int, std::allocator<unsigned int>>::_Vector_impl" }
%"struct.std::_Vector_base<unsigned int, std::allocator<unsigned int>>::_Vector_impl" = type { %"struct.std::_Vector_base<unsigned int, std::allocator<unsigned int>>::_Vector_impl_data" }
%"struct.std::_Vector_base<unsigned int, std::allocator<unsigned int>>::_Vector_impl_data" = type { ptr, ptr, ptr }
%"class.llvm::PressureChange" = type { i16, i16 }
%"class.std::__cxx11::basic_string" = type { %"struct.std::__cxx11::basic_string<char>::_Alloc_hider", i64, %union.anon.318 }
%"struct.std::__cxx11::basic_string<char>::_Alloc_hider" = type { ptr }
%union.anon.318 = type { i64, [8 x i8] }
%"class.llvm::SchedBoundary" = type { ptr, ptr, ptr, %"class.llvm::ReadyQueue", %"class.llvm::ReadyQueue", ptr, i8, i32, i32, i32, i32, i32, i32, %"class.llvm::SmallVector.93", i32, i32, i8, %"class.std::map", %"class.std::vector.243", %"class.llvm::SmallVector.93", %"class.llvm::SmallVector.490" }
%"class.llvm::ReadyQueue" = type { i32, %"class.std::__cxx11::basic_string", %"class.std::vector.482" }
%"class.std::vector.482" = type { %"struct.std::_Vector_base.483" }
%"struct.std::_Vector_base.483" = type { %"struct.std::_Vector_base<llvm::SUnit *, std::allocator<llvm::SUnit *>>::_Vector_impl" }
%"struct.std::_Vector_base<llvm::SUnit *, std::allocator<llvm::SUnit *>>::_Vector_impl" = type { %"struct.std::_Vector_base<llvm::SUnit *, std::allocator<llvm::SUnit *>>::_Vector_impl_data" }
%"struct.std::_Vector_base<llvm::SUnit *, std::allocator<llvm::SUnit *>>::_Vector_impl_data" = type { ptr, ptr, ptr }
%"class.std::map" = type { %"class.std::_Rb_tree" }
%"class.std::_Rb_tree" = type { %"struct.std::_Rb_tree<unsigned int, std::pair<const unsigned int, llvm::ResourceSegments>, std::_Select1st<std::pair<const unsigned int, llvm::ResourceSegments>>, std::less<unsigned int>>::_Rb_tree_impl" }
%"struct.std::_Rb_tree<unsigned int, std::pair<const unsigned int, llvm::ResourceSegments>, std::_Select1st<std::pair<const unsigned int, llvm::ResourceSegments>>, std::less<unsigned int>>::_Rb_tree_impl" = type { [8 x i8], %"struct.std::_Rb_tree_header" }
%"struct.std::_Rb_tree_header" = type { %"struct.std::_Rb_tree_node_base", i64 }
%"struct.std::_Rb_tree_node_base" = type { i32, ptr, ptr, ptr }
%"class.llvm::SmallVector.490" = type { %"class.llvm::SmallVectorImpl.491", %"struct.llvm::SmallVectorStorage.494" }
%"class.llvm::SmallVectorImpl.491" = type { %"class.llvm::SmallVectorTemplateBase.492" }
%"class.llvm::SmallVectorTemplateBase.492" = type { %"class.llvm::SmallVectorTemplateCommon.493" }
%"class.llvm::SmallVectorTemplateCommon.493" = type { %"class.llvm::SmallVectorBase" }
%"struct.llvm::SmallVectorStorage.494" = type { [256 x i8] }
%"struct.llvm::SchedRemainder" = type { i32, i32, i32, i8, %"class.llvm::SmallVector.93" }
%"struct.llvm::GenericSchedulerBase::SchedCandidate" = type { %"struct.llvm::GenericSchedulerBase::CandPolicy", ptr, i8, i8, %"struct.llvm::RegPressureDelta", %"struct.llvm::GenericSchedulerBase::SchedResourceDelta" }
%"struct.llvm::GenericSchedulerBase::CandPolicy" = type { i8, i32, i32 }
%"struct.llvm::RegPressureDelta" = type { %"class.llvm::PressureChange", %"class.llvm::PressureChange", %"class.llvm::PressureChange" }
%"struct.llvm::GenericSchedulerBase::SchedResourceDelta" = type { i32, i32 }
%"class.llvm::GenericSchedulerBase" = type { %"class.llvm::MachineSchedStrategy", ptr, ptr, ptr, %"struct.llvm::SchedRemainder" }
%"class.llvm::MachineSchedStrategy" = type { ptr }
%"struct.llvm::MachineSchedPolicy" = type { i8, i8, i8, i8, i8, i8 }
%"class.llvm::PostGenericScheduler" = type { %"class.llvm::GenericSchedulerBase", ptr, %"class.llvm::SchedBoundary", %"class.llvm::SchedBoundary", %"struct.llvm::MachineSchedPolicy", %"struct.llvm::GenericSchedulerBase::SchedCandidate", %"struct.llvm::GenericSchedulerBase::SchedCandidate" }

@_ZN4llvm15PostRADirectionE = global %"class.llvm::cl::opt.0" zeroinitializer, align 8

; Function Attrs: mustprogress nounwind uwtable
define linkonce_odr hidden noundef i32 @_ZNK4llvm2cl11opt_storageINS_18MISchedPostRASched9DirectionELb0ELb0EE8getValueEv(ptr noundef nonnull align 8 dereferenceable(24) %0) #1 comdat align 2 {
  %2 = alloca ptr, align 8
  store ptr %0, ptr %2, align 8
  %3 = load ptr, ptr %2, align 8
  %4 = getelementptr inbounds nuw %"class.llvm::cl::opt_storage.1", ptr %3, i32 0, i32 0
  %5 = load i32, ptr %4, align 8
  ret i32 %5
}

; Function Attrs: mustprogress nounwind uwtable
define linkonce_odr hidden noundef i32 @_ZNK4llvm2cl11opt_storageINS_18MISchedPostRASched9DirectionELb0ELb0EEcvS3_Ev(ptr noundef nonnull align 8 dereferenceable(24) %0) #1 comdat align 2 {
  %2 = alloca ptr, align 8
  store ptr %0, ptr %2, align 8
  %3 = load ptr, ptr %2, align 8
  %4 = call noundef i32 @_ZNK4llvm2cl11opt_storageINS_18MISchedPostRASched9DirectionELb0ELb0EE8getValueEv(ptr noundef nonnull align 8 dereferenceable(24) %3)
  ret i32 %4
}

; Function Attrs: mustprogress nounwind uwtable
define dso_local void @_ZN4llvm20PostGenericScheduler10initPolicyENS_26MachineInstrBundleIteratorINS_12MachineInstrELb0EEES3_j(ptr noundef nonnull align 8 dereferenceable(1664) %0, ptr %1, ptr %2, i32 noundef %3) unnamed_addr #1 align 2 {
  %5 = alloca %"class.llvm::MachineInstrBundleIterator", align 8
  %6 = alloca %"class.llvm::MachineInstrBundleIterator", align 8
  %7 = alloca ptr, align 8
  %8 = alloca i32, align 4
  %9 = getelementptr inbounds nuw %"class.llvm::MachineInstrBundleIterator", ptr %5, i32 0, i32 0
  %10 = getelementptr inbounds nuw %"class.llvm::ilist_iterator", ptr %9, i32 0, i32 0
  store ptr %1, ptr %10, align 8
  %11 = getelementptr inbounds nuw %"class.llvm::MachineInstrBundleIterator", ptr %6, i32 0, i32 0
  %12 = getelementptr inbounds nuw %"class.llvm::ilist_iterator", ptr %11, i32 0, i32 0
  store ptr %2, ptr %12, align 8
  store ptr %0, ptr %7, align 8
  store i32 %3, ptr %8, align 4
  %13 = load ptr, ptr %7, align 8
  %14 = call noundef i32 @_ZNK4llvm2cl11opt_storageINS_18MISchedPostRASched9DirectionELb0ELb0EEcvS3_Ev(ptr noundef nonnull align 8 dereferenceable(24) getelementptr inbounds (i8, ptr @_ZN4llvm15PostRADirectionE, i64 128))
  %15 = icmp eq i32 %14, 0
  br i1 %15, label %16, label %21

16:                                               ; preds = %4
  %17 = getelementptr inbounds nuw %"class.llvm::PostGenericScheduler", ptr %13, i32 0, i32 4
  %18 = getelementptr inbounds nuw %"struct.llvm::MachineSchedPolicy", ptr %17, i32 0, i32 2
  store i8 1, ptr %18, align 2
  %19 = getelementptr inbounds nuw %"class.llvm::PostGenericScheduler", ptr %13, i32 0, i32 4
  %20 = getelementptr inbounds nuw %"struct.llvm::MachineSchedPolicy", ptr %19, i32 0, i32 3
  store i8 0, ptr %20, align 1
  br label %39

21:                                               ; preds = %4
  %22 = call noundef i32 @_ZNK4llvm2cl11opt_storageINS_18MISchedPostRASched9DirectionELb0ELb0EEcvS3_Ev(ptr noundef nonnull align 8 dereferenceable(24) getelementptr inbounds (i8, ptr @_ZN4llvm15PostRADirectionE, i64 128))
  %23 = icmp eq i32 %22, 1
  br i1 %23, label %24, label %29

24:                                               ; preds = %21
  %25 = getelementptr inbounds nuw %"class.llvm::PostGenericScheduler", ptr %13, i32 0, i32 4
  %26 = getelementptr inbounds nuw %"struct.llvm::MachineSchedPolicy", ptr %25, i32 0, i32 2
  store i8 0, ptr %26, align 2
  %27 = getelementptr inbounds nuw %"class.llvm::PostGenericScheduler", ptr %13, i32 0, i32 4
  %28 = getelementptr inbounds nuw %"struct.llvm::MachineSchedPolicy", ptr %27, i32 0, i32 3
  store i8 1, ptr %28, align 1
  br label %38

29:                                               ; preds = %21
  %30 = call noundef i32 @_ZNK4llvm2cl11opt_storageINS_18MISchedPostRASched9DirectionELb0ELb0EEcvS3_Ev(ptr noundef nonnull align 8 dereferenceable(24) getelementptr inbounds (i8, ptr @_ZN4llvm15PostRADirectionE, i64 128))
  %31 = icmp eq i32 %30, 2
  br i1 %31, label %32, label %37

32:                                               ; preds = %29
  %33 = getelementptr inbounds nuw %"class.llvm::PostGenericScheduler", ptr %13, i32 0, i32 4
  %34 = getelementptr inbounds nuw %"struct.llvm::MachineSchedPolicy", ptr %33, i32 0, i32 3
  store i8 0, ptr %34, align 1
  %35 = getelementptr inbounds nuw %"class.llvm::PostGenericScheduler", ptr %13, i32 0, i32 4
  %36 = getelementptr inbounds nuw %"struct.llvm::MachineSchedPolicy", ptr %35, i32 0, i32 2
  store i8 0, ptr %36, align 2
  br label %37

37:                                               ; preds = %32, %29
  br label %38

38:                                               ; preds = %37, %24
  br label %39

39:                                               ; preds = %38, %16
  ret void
}