; Function Attrs: mustprogress nofree norecurse nosync nounwind willreturn memory(read, argmem: write, inaccessiblemem: none) uwtable
define dso_local void @_ZN4llvm20PostGenericScheduler10initPolicyENS_26MachineInstrBundleIteratorINS_12MachineInstrELb0EEES3_j(ptr noundef nonnull writeonly align 8 captures(none) dereferenceable(1664) %0, ptr readnone captures(none) %1, ptr readnone captures(none) %2, i32 %3) unnamed_addr #13 align 2 {
  %5 = load i32, ptr getelementptr inbounds nuw (i8, ptr @_ZN4llvm15PostRADirectionE, i64 128), align 8
  switch i32 %5, label %15 [
    i32 0, label %6
    i32 1, label %9
    i32 2, label %12
  ]

6:                                                ; preds = %4
  %7 = getelementptr inbounds nuw i8, ptr %0, i64 1562
  store i8 1, ptr %7, align 2
  %8 = getelementptr inbounds nuw i8, ptr %0, i64 1563
  store i8 0, ptr %8, align 1
  br label %15

9:                                                ; preds = %4
  %10 = getelementptr inbounds nuw i8, ptr %0, i64 1562
  store i8 0, ptr %10, align 2
  %11 = getelementptr inbounds nuw i8, ptr %0, i64 1563
  store i8 1, ptr %11, align 1
  br label %15

12:                                               ; preds = %4
  %13 = getelementptr inbounds nuw i8, ptr %0, i64 1563
  store i8 0, ptr %13, align 1
  %14 = getelementptr inbounds nuw i8, ptr %0, i64 1562
  store i8 0, ptr %14, align 2
  br label %15

15:                                               ; preds = %4, %9, %12, %6
  ret void
}